target datalayout = "e-m:e-p270:32:32-p271:32:32-p272:64:64-i64:64-i128:128-f80:128-n8:16:32:64-S128"
target triple = "x86_64-unknown-linux-gnu"

%"class.llvh::circular_raw_ostream" = type { %"class.llvh::raw_ostream.base", ptr, i8, i64, ptr, ptr, i8, ptr }
%"class.llvh::raw_ostream.base" = type <{ ptr, ptr, ptr, ptr, i32 }>

; Function Attrs: mustprogress nounwind uwtable
define linkonce_odr noundef nonnull align 4 dereferenceable(4) ptr @_ZSt3minIjERKT_S2_S2_(ptr noundef nonnull align 4 dereferenceable(4) %__a, ptr noundef nonnull align 4 dereferenceable(4) %__b) #0 comdat {
entry:
  %retval = alloca ptr, align 8
  %__a.addr = alloca ptr, align 8
  %__b.addr = alloca ptr, align 8
  store ptr %__a, ptr %__a.addr, align 8
  store ptr %__b, ptr %__b.addr, align 8
  %0 = load ptr, ptr %__b.addr, align 8
  %1 = load i32, ptr %0, align 4
  %2 = load ptr, ptr %__a.addr, align 8
  %3 = load i32, ptr %2, align 4
  %cmp = icmp ult i32 %1, %3
  br i1 %cmp, label %if.then, label %if.end

if.then:                                          ; preds = %entry
  %4 = load ptr, ptr %__b.addr, align 8
  store ptr %4, ptr %retval, align 8
  br label %return

if.end:                                           ; preds = %entry
  %5 = load ptr, ptr %__a.addr, align 8
  store ptr %5, ptr %retval, align 8
  br label %return

return:                                           ; preds = %if.end, %if.then
  %6 = load ptr, ptr %retval, align 8
  ret ptr %6
}

; Function Attrs: mustprogress nounwind uwtable
define hidden void @_ZN4llvh20circular_raw_ostream10write_implEPKcm(ptr noundef nonnull align 8 dereferenceable(96) %this, ptr noundef %Ptr, i64 noundef %Size) unnamed_addr #0 align 2 {
entry:
  %this.addr = alloca ptr, align 8
  %Ptr.addr = alloca ptr, align 8
  %Size.addr = alloca i64, align 8
  %Bytes = alloca i32, align 4
  %ref.tmp = alloca i32, align 4
  %ref.tmp3 = alloca i32, align 4
  store ptr %this, ptr %this.addr, align 8
  store ptr %Ptr, ptr %Ptr.addr, align 8
  store i64 %Size, ptr %Size.addr, align 8
  %this1 = load ptr, ptr %this.addr, align 8
  %BufferSize = getelementptr inbounds %"class.llvh::circular_raw_ostream", ptr %this1, i32 0, i32 3
  %0 = load i64, ptr %BufferSize, align 8
  %cmp = icmp eq i64 %0, 0
  br i1 %cmp, label %if.then, label %if.end

if.then:                                          ; preds = %entry
  %TheStream = getelementptr inbounds %"class.llvh::circular_raw_ostream", ptr %this1, i32 0, i32 1
  %1 = load ptr, ptr %TheStream, align 8
  %2 = load ptr, ptr %Ptr.addr, align 8
  %3 = load i64, ptr %Size.addr, align 8
  %call = call noundef nonnull align 8 dereferenceable(36) ptr @_ZN4llvh11raw_ostream5writeEPKcm(ptr noundef nonnull align 8 dereferenceable(36) %1, ptr noundef %2, i64 noundef %3)
  br label %while.end

if.end:                                           ; preds = %entry
  br label %while.cond

while.cond:                                       ; preds = %if.end20, %if.end
  %4 = load i64, ptr %Size.addr, align 8
  %cmp2 = icmp ne i64 %4, 0
  br i1 %cmp2, label %while.body, label %while.end

while.body:                                       ; preds = %while.cond
  %5 = load i64, ptr %Size.addr, align 8
  %conv = trunc i64 %5 to i32
  store i32 %conv, ptr %ref.tmp, align 4
  %BufferSize4 = getelementptr inbounds %"class.llvh::circular_raw_ostream", ptr %this1, i32 0, i32 3
  %6 = load i64, ptr %BufferSize4, align 8
  %Cur = getelementptr inbounds %"class.llvh::circular_raw_ostream", ptr %this1, i32 0, i32 5
  %7 = load ptr, ptr %Cur, align 8
  %BufferArray = getelementptr inbounds %"class.llvh::circular_raw_ostream", ptr %this1, i32 0, i32 4
  %8 = load ptr, ptr %BufferArray, align 8
  %sub.ptr.lhs.cast = ptrtoint ptr %7 to i64
  %sub.ptr.rhs.cast = ptrtoint ptr %8 to i64
  %sub.ptr.sub = sub i64 %sub.ptr.lhs.cast, %sub.ptr.rhs.cast
  %sub = sub i64 %6, %sub.ptr.sub
  %conv5 = trunc i64 %sub to i32
  store i32 %conv5, ptr %ref.tmp3, align 4
  %call6 = call noundef nonnull align 4 dereferenceable(4) ptr @_ZSt3minIjERKT_S2_S2_(ptr noundef nonnull align 4 dereferenceable(4) %ref.tmp, ptr noundef nonnull align 4 dereferenceable(4) %ref.tmp3)
  %9 = load i32, ptr %call6, align 4
  store i32 %9, ptr %Bytes, align 4
  %Cur7 = getelementptr inbounds %"class.llvh::circular_raw_ostream", ptr %this1, i32 0, i32 5
  %10 = load ptr, ptr %Cur7, align 8
  %11 = load ptr, ptr %Ptr.addr, align 8
  %12 = load i32, ptr %Bytes, align 4
  %conv8 = zext i32 %12 to i64
  call void @llvm.memcpy.p0.p0.i64(ptr align 1 %10, ptr align 1 %11, i64 %conv8, i1 false)
  %13 = load i32, ptr %Bytes, align 4
  %conv9 = zext i32 %13 to i64
  %14 = load i64, ptr %Size.addr, align 8
  %sub10 = sub i64 %14, %conv9
  store i64 %sub10, ptr %Size.addr, align 8
  %15 = load i32, ptr %Bytes, align 4
  %Cur11 = getelementptr inbounds %"class.llvh::circular_raw_ostream", ptr %this1, i32 0, i32 5
  %16 = load ptr, ptr %Cur11, align 8
  %idx.ext = zext i32 %15 to i64
  %add.ptr = getelementptr inbounds i8, ptr %16, i64 %idx.ext
  store ptr %add.ptr, ptr %Cur11, align 8
  %Cur12 = getelementptr inbounds %"class.llvh::circular_raw_ostream", ptr %this1, i32 0, i32 5
  %17 = load ptr, ptr %Cur12, align 8
  %BufferArray13 = getelementptr inbounds %"class.llvh::circular_raw_ostream", ptr %this1, i32 0, i32 4
  %18 = load ptr, ptr %BufferArray13, align 8
  %BufferSize14 = getelementptr inbounds %"class.llvh::circular_raw_ostream", ptr %this1, i32 0, i32 3
  %19 = load i64, ptr %BufferSize14, align 8
  %add.ptr15 = getelementptr inbounds i8, ptr %18, i64 %19
  %cmp16 = icmp eq ptr %17, %add.ptr15
  br i1 %cmp16, label %if.then17, label %if.end20

if.then17:                                        ; preds = %while.body
  %BufferArray18 = getelementptr inbounds %"class.llvh::circular_raw_ostream", ptr %this1, i32 0, i32 4
  %20 = load ptr, ptr %BufferArray18, align 8
  %Cur19 = getelementptr inbounds %"class.llvh::circular_raw_ostream", ptr %this1, i32 0, i32 5
  store ptr %20, ptr %Cur19, align 8
  %Filled = getelementptr inbounds %"class.llvh::circular_raw_ostream", ptr %this1, i32 0, i32 6
  store i8 1, ptr %Filled, align 8
  br label %if.end20

if.end20:                                         ; preds = %if.then17, %while.body
  br label %while.cond, !llvm.loop !4

while.end:                                        ; preds = %while.cond, %if.then
  ret void
}