; Function Attrs: mustprogress nounwind uwtable
define hidden void @_ZN4llvh20circular_raw_ostream10write_implEPKcm(ptr nocapture noundef nonnull align 8 dereferenceable(96) %this, ptr noundef %Ptr, i64 noundef %Size) unnamed_addr #0 align 2 {
entry:
  %BufferSize = getelementptr inbounds i8, ptr %this, i64 56
  %0 = load i64, ptr %BufferSize, align 8
  %cmp = icmp eq i64 %0, 0
  br i1 %cmp, label %if.then, label %while.cond.preheader

while.cond.preheader:                             ; preds = %entry
  %cmp2.not9 = icmp eq i64 %Size, 0
  br i1 %cmp2.not9, label %while.end, label %while.body.lr.ph

while.body.lr.ph:                                 ; preds = %while.cond.preheader
  %Cur = getelementptr inbounds i8, ptr %this, i64 72
  %BufferArray = getelementptr inbounds i8, ptr %this, i64 64
  %Filled = getelementptr inbounds i8, ptr %this, i64 80
  %.pre = load ptr, ptr %Cur, align 8
  %.pre11 = load ptr, ptr %BufferArray, align 8
  br label %while.body

if.then:                                          ; preds = %entry
  %TheStream = getelementptr inbounds i8, ptr %this, i64 40
  %1 = load ptr, ptr %TheStream, align 8
  %call = tail call noundef nonnull align 8 dereferenceable(36) ptr @_ZN4llvh11raw_ostream5writeEPKcm(ptr noundef nonnull align 8 dereferenceable(36) %1, ptr noundef %Ptr, i64 noundef %Size) #7
  br label %while.end

while.body:                                       ; preds = %while.body.lr.ph, %if.end20
  %2 = phi ptr [ %.pre11, %while.body.lr.ph ], [ %6, %if.end20 ]
  %3 = phi ptr [ %.pre, %while.body.lr.ph ], [ %8, %if.end20 ]
  %4 = phi i64 [ %0, %while.body.lr.ph ], [ %7, %if.end20 ]
  %Size.addr.010 = phi i64 [ %Size, %while.body.lr.ph ], [ %sub10, %if.end20 ]
  %conv = trunc i64 %Size.addr.010 to i32
  %sub.ptr.lhs.cast = ptrtoint ptr %3 to i64
  %sub.ptr.rhs.cast = ptrtoint ptr %2 to i64
  %sub.ptr.sub.neg = sub i64 %4, %sub.ptr.lhs.cast
  %sub = add i64 %sub.ptr.sub.neg, %sub.ptr.rhs.cast
  %conv5 = trunc i64 %sub to i32
  %.sroa.speculated = tail call i32 @llvm.umin.i32(i32 %conv5, i32 %conv)
  %conv8 = zext i32 %.sroa.speculated to i64
  tail call void @llvm.memcpy.p0.p0.i64(ptr align 1 %3, ptr align 1 %Ptr, i64 %conv8, i1 false)
  %sub10 = sub i64 %Size.addr.010, %conv8
  %5 = load ptr, ptr %Cur, align 8
  %add.ptr = getelementptr inbounds i8, ptr %5, i64 %conv8
  store ptr %add.ptr, ptr %Cur, align 8
  %6 = load ptr, ptr %BufferArray, align 8
  %7 = load i64, ptr %BufferSize, align 8
  %add.ptr15 = getelementptr inbounds i8, ptr %6, i64 %7
  %cmp16 = icmp eq ptr %add.ptr, %add.ptr15
  br i1 %cmp16, label %if.then17, label %if.end20

if.then17:                                        ; preds = %while.body
  store ptr %6, ptr %Cur, align 8
  store i8 1, ptr %Filled, align 8
  br label %if.end20

if.end20:                                         ; preds = %if.then17, %while.body
  %8 = phi ptr [ %6, %if.then17 ], [ %add.ptr, %while.body ]
  %cmp2.not = icmp eq i64 %sub10, 0
  br i1 %cmp2.not, label %while.end, label %while.body, !llvm.loop !4

while.end:                                        ; preds = %if.end20, %while.cond.preheader, %if.then
  ret void
}